target datalayout = "e-m:e-p270:32:32-p271:32:32-p272:64:64-i64:64-i128:128-f80:128-n8:16:32:64-S128"
target triple = "x86_64-pc-linux-gnu"

@.str = private unnamed_addr constant [9 x i8] c"SHAKE256\00", align 1
@__const.hash_init_with_dom.dom_s = private unnamed_addr constant [9 x i8] c"SigEd448\00", align 1

; Function Attrs: nounwind uwtable
define internal i32 @hash_init_with_dom(ptr noundef %0, ptr noundef %1, i8 noundef zeroext %2, i8 noundef zeroext %3, ptr noundef %4, i64 noundef %5, ptr noundef %6) #0 {
  %8 = alloca i32, align 4
  %9 = alloca ptr, align 8
  %10 = alloca ptr, align 8
  %11 = alloca i8, align 1
  %12 = alloca i8, align 1
  %13 = alloca ptr, align 8
  %14 = alloca i64, align 8
  %15 = alloca ptr, align 8
  %16 = alloca [9 x i8], align 1
  %17 = alloca [2 x i8], align 1
  %18 = alloca ptr, align 8
  %19 = alloca i32, align 4
  store ptr %0, ptr %9, align 8, !tbaa !3
  store ptr %1, ptr %10, align 8, !tbaa !12
  store i8 %2, ptr %11, align 1, !tbaa !22
  store i8 %3, ptr %12, align 1, !tbaa !22
  store ptr %4, ptr %13, align 8, !tbaa !8
  store i64 %5, ptr %14, align 8, !tbaa !10
  store ptr %6, ptr %15, align 8, !tbaa !8
  call void @llvm.lifetime.start.p0(i64 9, ptr %16) #6
  call void @llvm.memcpy.p0.p0.i64(ptr align 1 %16, ptr align 1 @__const.hash_init_with_dom.dom_s, i64 9, i1 false)
  call void @llvm.lifetime.start.p0(i64 2, ptr %17) #6
  call void @llvm.lifetime.start.p0(i64 8, ptr %18) #6
  store ptr null, ptr %18, align 8, !tbaa !14
  %20 = load i64, ptr %14, align 8, !tbaa !10
  %21 = icmp ugt i64 %20, 255
  br i1 %21, label %22, label %23

22:                                               ; preds = %7
  store i32 0, ptr %8, align 4
  store i32 1, ptr %19, align 4
  br label %70

23:                                               ; preds = %7
  %24 = load i8, ptr %11, align 1, !tbaa !22
  %25 = zext i8 %24 to i32
  %26 = icmp eq i32 %25, 0
  %27 = select i1 %26, i32 1, i32 0
  %28 = sub nsw i32 2, %27
  %29 = load i8, ptr %12, align 1, !tbaa !22
  %30 = zext i8 %29 to i32
  %31 = icmp eq i32 %30, 0
  %32 = select i1 %31, i32 1, i32 0
  %33 = sub nsw i32 %28, %32
  %34 = trunc i32 %33 to i8
  %35 = getelementptr inbounds [2 x i8], ptr %17, i64 0, i64 0
  store i8 %34, ptr %35, align 1, !tbaa !22
  %36 = load i64, ptr %14, align 8, !tbaa !10
  %37 = trunc i64 %36 to i8
  %38 = getelementptr inbounds [2 x i8], ptr %17, i64 0, i64 1
  store i8 %37, ptr %38, align 1, !tbaa !22
  %39 = load ptr, ptr %9, align 8, !tbaa !3
  %40 = load ptr, ptr %15, align 8, !tbaa !8
  %41 = call ptr @EVP_MD_fetch(ptr noundef %39, ptr noundef @.str, ptr noundef %40)
  store ptr %41, ptr %18, align 8, !tbaa !14
  %42 = load ptr, ptr %18, align 8, !tbaa !14
  %43 = icmp eq ptr %42, null
  br i1 %43, label %44, label %45

44:                                               ; preds = %23
  store i32 0, ptr %8, align 4
  store i32 1, ptr %19, align 4
  br label %70

45:                                               ; preds = %23
  %46 = load ptr, ptr %10, align 8, !tbaa !12
  %47 = load ptr, ptr %18, align 8, !tbaa !14
  %48 = call i32 @EVP_DigestInit_ex(ptr noundef %46, ptr noundef %47, ptr noundef null)
  %49 = icmp ne i32 %48, 0
  br i1 %49, label %50, label %66

50:                                               ; preds = %45
  %51 = load ptr, ptr %10, align 8, !tbaa !12
  %52 = getelementptr inbounds [9 x i8], ptr %16, i64 0, i64 0
  %53 = call i32 @EVP_DigestUpdate(ptr noundef %51, ptr noundef %52, i64 noundef 8)
  %54 = icmp ne i32 %53, 0
  br i1 %54, label %55, label %66

55:                                               ; preds = %50
  %56 = load ptr, ptr %10, align 8, !tbaa !12
  %57 = getelementptr inbounds [2 x i8], ptr %17, i64 0, i64 0
  %58 = call i32 @EVP_DigestUpdate(ptr noundef %56, ptr noundef %57, i64 noundef 2)
  %59 = icmp ne i32 %58, 0
  br i1 %59, label %60, label %66

60:                                               ; preds = %55
  %61 = load ptr, ptr %10, align 8, !tbaa !12
  %62 = load ptr, ptr %13, align 8, !tbaa !8
  %63 = load i64, ptr %14, align 8, !tbaa !10
  %64 = call i32 @EVP_DigestUpdate(ptr noundef %61, ptr noundef %62, i64 noundef %63)
  %65 = icmp ne i32 %64, 0
  br i1 %65, label %68, label %66

66:                                               ; preds = %60, %55, %50, %45
  %67 = load ptr, ptr %18, align 8, !tbaa !14
  call void @EVP_MD_free(ptr noundef %67)
  store i32 0, ptr %8, align 4
  store i32 1, ptr %19, align 4
  br label %70

68:                                               ; preds = %60
  %69 = load ptr, ptr %18, align 8, !tbaa !14
  call void @EVP_MD_free(ptr noundef %69)
  store i32 -1, ptr %8, align 4
  store i32 1, ptr %19, align 4
  br label %70

70:                                               ; preds = %68, %66, %44, %22
  call void @llvm.lifetime.end.p0(i64 8, ptr %18) #6
  call void @llvm.lifetime.end.p0(i64 2, ptr %17) #6
  call void @llvm.lifetime.end.p0(i64 9, ptr %16) #6
  %71 = load i32, ptr %8, align 4
  ret i32 %71
}