; Function Attrs: nounwind uwtable
define internal fastcc range(i32 -1, 1) i32 @hash_init_with_dom(ptr noundef %0, ptr noundef nonnull %1, i8 noundef zeroext %2, ptr noundef %3, i64 noundef %4, ptr noundef %5) unnamed_addr #0 {
  %7 = alloca [9 x i8], align 1
  %8 = alloca [2 x i8], align 1
  call void @llvm.lifetime.start.p0(i64 9, ptr nonnull %7) #5
  call void @llvm.memcpy.p0.p0.i64(ptr noundef nonnull align 1 dereferenceable(9) %7, ptr noundef nonnull align 1 dereferenceable(9) @__const.hash_init_with_dom.dom_s, i64 9, i1 false)
  call void @llvm.lifetime.start.p0(i64 2, ptr nonnull %8) #5
  %9 = icmp ugt i64 %4, 255
  br i1 %9, label %25, label %10

10:                                               ; preds = %6
  %11 = icmp ne i8 %2, 0
  %12 = zext i1 %11 to i8
  store i8 %12, ptr %8, align 1, !tbaa !3
  %13 = trunc nuw i64 %4 to i8
  %14 = getelementptr inbounds nuw i8, ptr %8, i64 1
  store i8 %13, ptr %14, align 1, !tbaa !3
  %15 = tail call ptr @EVP_MD_fetch(ptr noundef %0, ptr noundef nonnull @.str, ptr noundef %5) #5
  %16 = icmp eq ptr %15, null
  br i1 %16, label %25, label %17

17:                                               ; preds = %10
  %18 = tail call i32 @EVP_DigestInit_ex(ptr noundef nonnull %1, ptr noundef nonnull %15, ptr noundef null) #5
  %.not = icmp eq i32 %18, 0
  br i1 %.not, label %.sink.split, label %19

19:                                               ; preds = %17
  %20 = call i32 @EVP_DigestUpdate(ptr noundef nonnull %1, ptr noundef nonnull %7, i64 noundef 8) #5
  %.not18 = icmp eq i32 %20, 0
  br i1 %.not18, label %.sink.split, label %21

21:                                               ; preds = %19
  %22 = call i32 @EVP_DigestUpdate(ptr noundef nonnull %1, ptr noundef nonnull %8, i64 noundef 2) #5
  %.not19 = icmp eq i32 %22, 0
  br i1 %.not19, label %.sink.split, label %23

23:                                               ; preds = %21
  %24 = call i32 @EVP_DigestUpdate(ptr noundef nonnull %1, ptr noundef %3, i64 noundef %4) #5
  %.not20 = icmp ne i32 %24, 0
  %spec.select = sext i1 %.not20 to i32
  br label %.sink.split

.sink.split:                                      ; preds = %23, %17, %19, %21
  %.0.ph = phi i32 [ 0, %21 ], [ 0, %19 ], [ 0, %17 ], [ %spec.select, %23 ]
  call void @EVP_MD_free(ptr noundef nonnull %15) #5
  br label %25

25:                                               ; preds = %.sink.split, %10, %6
  %.0 = phi i32 [ 0, %6 ], [ 0, %10 ], [ %.0.ph, %.sink.split ]
  call void @llvm.lifetime.end.p0(i64 2, ptr nonnull %8) #5
  call void @llvm.lifetime.end.p0(i64 9, ptr nonnull %7) #5
  ret i32 %.0
}